target datalayout = "e-m:e-p270:32:32-p271:32:32-p272:64:64-i64:64-i128:128-f80:128-n8:16:32:64-S128"
target triple = "x86_64-unknown-linux-gnu"

; Function Attrs: mustprogress uwtable
define noundef i32 @_ZN8facebook5velox4util18castFromDateStringEPKcmb(ptr noundef %str, i64 noundef %len, i1 noundef zeroext %isIso8601) #1 {
entry:
  %str.addr = alloca ptr, align 8
  %len.addr = alloca i64, align 8
  %isIso8601.addr = alloca i8, align 1
  %daysSinceEpoch = alloca i64, align 8
  %pos = alloca i64, align 8
  %mode = alloca i32, align 4
  store ptr %str, ptr %str.addr, align 8
  store i64 %len, ptr %len.addr, align 8
  %frombool = zext i1 %isIso8601 to i8
  store i8 %frombool, ptr %isIso8601.addr, align 1
  store i64 0, ptr %pos, align 8
  %0 = load i8, ptr %isIso8601.addr, align 1
  %tobool = trunc i8 %0 to i1
  %cond = select i1 %tobool, i32 2, i32 3
  store i32 %cond, ptr %mode, align 4
  %1 = load ptr, ptr %str.addr, align 8
  %2 = load i64, ptr %len.addr, align 8
  %3 = load i32, ptr %mode, align 4
  %call = call noundef zeroext i1 @_ZN8facebook5velox4util12_GLOBAL__N_118tryParseDateStringEPKcmRmRlNS2_9ParseModeE(ptr noundef %1, i64 noundef %2, ptr noundef nonnull align 8 dereferenceable(8) %pos, ptr noundef nonnull align 8 dereferenceable(8) %daysSinceEpoch, i32 noundef %3)
  br i1 %call, label %if.end3, label %if.then

if.then:                                          ; preds = %entry
  %4 = load i8, ptr %isIso8601.addr, align 1
  %tobool1 = trunc i8 %4 to i1
  br i1 %tobool1, label %if.then2, label %if.else

if.then2:                                         ; preds = %if.then
  call void @llvm.trap()
  br label %if.end

if.else:                                          ; preds = %if.then
  call void @llvm.trap()
  br label %if.end

if.end:                                           ; preds = %if.else, %if.then2
  br label %if.end3

if.end3:                                          ; preds = %if.end, %entry
  %5 = load i64, ptr %daysSinceEpoch, align 8
  %conv = trunc i64 %5 to i32
  ret i32 %conv
}