; Function Attrs: mustprogress nounwind memory(argmem: readwrite, inaccessiblemem: write) uwtable
define noundef i32 @_ZN8facebook5velox4util18castFromDateStringEPKcmb(ptr noundef readonly captures(none) %str, i64 noundef %len, i1 noundef zeroext %isIso8601) local_unnamed_addr #4 {
entry:
  %daysSinceEpoch = alloca i64, align 8
  %pos = alloca i64, align 8
  %cond = select i1 %isIso8601, i32 2, i32 3
  %call = call fastcc noundef zeroext i1 @_ZN8facebook5velox4util12_GLOBAL__N_118tryParseDateStringEPKcmRmRlNS2_9ParseModeE(ptr noundef %str, i64 noundef %len, ptr noundef nonnull align 8 dereferenceable(8) %pos, ptr noundef nonnull align 8 dereferenceable(8) %daysSinceEpoch, i32 noundef %cond)
  br i1 %call, label %if.end3, label %if.then

if.then:                                          ; preds = %entry
  tail call void @llvm.trap()
  unreachable

if.end3:                                          ; preds = %entry
  %0 = load i64, ptr %daysSinceEpoch, align 8
  %conv = trunc i64 %0 to i32
  ret i32 %conv
}